target datalayout = "e-m:e-p270:32:32-p271:32:32-p272:64:64-i64:64-i128:128-f80:128-n8:16:32:64-S128"
target triple = "x86_64-pc-linux-gnu"

%struct.H5G_loc_t = type { ptr, ptr }

@H5G_init_g = external global i8, align 1
@H5_libterm_g = external global i8, align 1
@.str.2 = private unnamed_addr constant [99 x i8] c"generated/home/dtcxzyw/WorkSpace/Projects/compilers/llvm-opt-benchmark/bench/hdf5/hdf5/src/H5Goh.c\00", align 1
@H5E_SYM_g = external global i64, align 8
@H5E_CLOSEERROR_g = external global i64, align 8
@.str.6 = private unnamed_addr constant [24 x i8] c"unable to release group\00", align 1
@__func__.H5O__group_create = private unnamed_addr constant [18 x i8] c"H5O__group_create\00", align 1
@H5E_CANTINIT_g = external global i64, align 8
@.str.7 = private unnamed_addr constant [23 x i8] c"unable to create group\00", align 1
@H5E_ARGS_g = external global i64, align 8
@H5E_BADVALUE_g = external global i64, align 8
@.str.8 = private unnamed_addr constant [39 x i8] c"unable to get object location of group\00", align 1
@.str.9 = private unnamed_addr constant [28 x i8] c"unable to get path of group\00", align 1

; Function Attrs: nounwind uwtable
define internal ptr @H5O__group_create(ptr noundef %0, ptr noundef %1, ptr noundef %2) #0 {
  %4 = alloca ptr, align 8
  %5 = alloca ptr, align 8
  %6 = alloca ptr, align 8
  %7 = alloca ptr, align 8
  %8 = alloca ptr, align 8
  %9 = alloca ptr, align 8
  %10 = alloca i8, align 1
  store ptr %0, ptr %4, align 8, !tbaa !27
  store ptr %1, ptr %5, align 8, !tbaa !3
  store ptr %2, ptr %6, align 8, !tbaa !23
  call void @llvm.lifetime.start.p0(i64 8, ptr %7) #4
  %11 = load ptr, ptr %5, align 8, !tbaa !3
  store ptr %11, ptr %7, align 8, !tbaa !29
  call void @llvm.lifetime.start.p0(i64 8, ptr %8) #4
  store ptr null, ptr %8, align 8, !tbaa !25
  call void @llvm.lifetime.start.p0(i64 8, ptr %9) #4
  store ptr null, ptr %9, align 8, !tbaa !3
  call void @llvm.lifetime.start.p0(i64 1, ptr %10) #4
  store i8 0, ptr %10, align 1, !tbaa !7
  %12 = load i8, ptr @H5G_init_g, align 1, !tbaa !7, !range !9, !noundef !10
  %13 = trunc i8 %12 to i1
  br i1 %13, label %18, label %14

14:                                               ; preds = %3
  %15 = load i8, ptr @H5_libterm_g, align 1, !tbaa !7, !range !9, !noundef !10
  %16 = trunc i8 %15 to i1
  %17 = xor i1 %16, true
  br label %18

18:                                               ; preds = %14, %3
  %19 = phi i1 [ true, %3 ], [ %17, %14 ]
  %20 = xor i1 %19, true
  %21 = xor i1 %20, true
  %22 = zext i1 %21 to i32
  %23 = sext i32 %22 to i64
  %24 = call i64 @llvm.expect.i64(i64 %23, i64 1)
  %25 = icmp ne i64 %24, 0
  br i1 %25, label %26, label %130

26:                                               ; preds = %18
  %27 = load ptr, ptr %4, align 8, !tbaa !27
  %28 = load ptr, ptr %7, align 8, !tbaa !29
  %29 = call ptr @H5G__create(ptr noundef %27, ptr noundef %28)
  store ptr %29, ptr %8, align 8, !tbaa !25
  %30 = icmp eq ptr null, %29
  br i1 %30, label %31, label %50

31:                                               ; preds = %26
  br label %32

32:                                               ; preds = %31
  br label %33

33:                                               ; preds = %32
  br label %34

34:                                               ; preds = %33
  %35 = load i64, ptr @H5E_SYM_g, align 8, !tbaa !11
  %36 = load i64, ptr @H5E_CANTINIT_g, align 8, !tbaa !11
  %37 = call i32 (ptr, ptr, i32, i64, i64, ptr, ...) @H5E_printf_stack(ptr noundef @.str.2, ptr noundef @__func__.H5O__group_create, i32 noundef 237, i64 noundef %35, i64 noundef %36, ptr noundef @.str.7)
  br label %38

38:                                               ; preds = %34
  br label %39

39:                                               ; preds = %38
  store i8 1, ptr %10, align 1, !tbaa !7
  %40 = load i8, ptr %10, align 1, !tbaa !7, !range !9, !noundef !10
  %41 = trunc i8 %40 to i1
  %42 = zext i1 %41 to i8
  store i8 %42, ptr %10, align 1, !tbaa !7
  br label %43

43:                                               ; preds = %39
  br label %44

44:                                               ; preds = %43
  br label %45

45:                                               ; preds = %44
  store ptr null, ptr %9, align 8, !tbaa !3
  br label %102

46:                                               ; No predecessors!
  br label %47

47:                                               ; preds = %46
  br label %48

48:                                               ; preds = %47
  br label %49

49:                                               ; preds = %48
  br label %50

50:                                               ; preds = %49, %26
  %51 = load ptr, ptr %8, align 8, !tbaa !25
  %52 = call ptr @H5G_oloc(ptr noundef %51)
  %53 = load ptr, ptr %6, align 8, !tbaa !23
  %54 = getelementptr inbounds nuw %struct.H5G_loc_t, ptr %53, i32 0, i32 0
  store ptr %52, ptr %54, align 8, !tbaa !31
  %55 = icmp eq ptr null, %52
  br i1 %55, label %56, label %75

56:                                               ; preds = %50
  br label %57

57:                                               ; preds = %56
  br label %58

58:                                               ; preds = %57
  br label %59

59:                                               ; preds = %58
  %60 = load i64, ptr @H5E_ARGS_g, align 8, !tbaa !11
  %61 = load i64, ptr @H5E_BADVALUE_g, align 8, !tbaa !11
  %62 = call i32 (ptr, ptr, i32, i64, i64, ptr, ...) @H5E_printf_stack(ptr noundef @.str.2, ptr noundef @__func__.H5O__group_create, i32 noundef 241, i64 noundef %60, i64 noundef %61, ptr noundef @.str.8)
  br label %63

63:                                               ; preds = %59
  br label %64

64:                                               ; preds = %63
  store i8 1, ptr %10, align 1, !tbaa !7
  %65 = load i8, ptr %10, align 1, !tbaa !7, !range !9, !noundef !10
  %66 = trunc i8 %65 to i1
  %67 = zext i1 %66 to i8
  store i8 %67, ptr %10, align 1, !tbaa !7
  br label %68

68:                                               ; preds = %64
  br label %69

69:                                               ; preds = %68
  br label %70

70:                                               ; preds = %69
  store ptr null, ptr %9, align 8, !tbaa !3
  br label %102

71:                                               ; No predecessors!
  br label %72

72:                                               ; preds = %71
  br label %73

73:                                               ; preds = %72
  br label %74

74:                                               ; preds = %73
  br label %75

75:                                               ; preds = %74, %50
  %76 = load ptr, ptr %8, align 8, !tbaa !25
  %77 = call ptr @H5G_nameof(ptr noundef %76)
  %78 = load ptr, ptr %6, align 8, !tbaa !23
  %79 = getelementptr inbounds nuw %struct.H5G_loc_t, ptr %78, i32 0, i32 1
  store ptr %77, ptr %79, align 8, !tbaa !35
  %80 = icmp eq ptr null, %77
  br i1 %80, label %81, label %100

81:                                               ; preds = %75
  br label %82

82:                                               ; preds = %81
  br label %83

83:                                               ; preds = %82
  br label %84

84:                                               ; preds = %83
  %85 = load i64, ptr @H5E_ARGS_g, align 8, !tbaa !11
  %86 = load i64, ptr @H5E_BADVALUE_g, align 8, !tbaa !11
  %87 = call i32 (ptr, ptr, i32, i64, i64, ptr, ...) @H5E_printf_stack(ptr noundef @.str.2, ptr noundef @__func__.H5O__group_create, i32 noundef 243, i64 noundef %85, i64 noundef %86, ptr noundef @.str.9)
  br label %88

88:                                               ; preds = %84
  br label %89

89:                                               ; preds = %88
  store i8 1, ptr %10, align 1, !tbaa !7
  %90 = load i8, ptr %10, align 1, !tbaa !7, !range !9, !noundef !10
  %91 = trunc i8 %90 to i1
  %92 = zext i1 %91 to i8
  store i8 %92, ptr %10, align 1, !tbaa !7
  br label %93

93:                                               ; preds = %89
  br label %94

94:                                               ; preds = %93
  br label %95

95:                                               ; preds = %94
  store ptr null, ptr %9, align 8, !tbaa !3
  br label %102

96:                                               ; No predecessors!
  br label %97

97:                                               ; preds = %96
  br label %98

98:                                               ; preds = %97
  br label %99

99:                                               ; preds = %98
  br label %100

100:                                              ; preds = %99, %75
  %101 = load ptr, ptr %8, align 8, !tbaa !25
  store ptr %101, ptr %9, align 8, !tbaa !3
  br label %102

102:                                              ; preds = %100, %95, %70, %45
  %103 = load ptr, ptr %9, align 8, !tbaa !3
  %104 = icmp eq ptr %103, null
  br i1 %104, label %105, label %129

105:                                              ; preds = %102
  %106 = load ptr, ptr %8, align 8, !tbaa !25
  %107 = icmp ne ptr %106, null
  br i1 %107, label %108, label %128

108:                                              ; preds = %105
  %109 = load ptr, ptr %8, align 8, !tbaa !25
  %110 = call i32 @H5G_close(ptr noundef %109)
  %111 = icmp slt i32 %110, 0
  br i1 %111, label %112, label %128

112:                                              ; preds = %108
  br label %113

113:                                              ; preds = %112
  br label %114

114:                                              ; preds = %113
  br label %115

115:                                              ; preds = %114
  %116 = load i64, ptr @H5E_SYM_g, align 8, !tbaa !11
  %117 = load i64, ptr @H5E_CLOSEERROR_g, align 8, !tbaa !11
  %118 = call i32 (ptr, ptr, i32, i64, i64, ptr, ...) @H5E_printf_stack(ptr noundef @.str.2, ptr noundef @__func__.H5O__group_create, i32 noundef 251, i64 noundef %116, i64 noundef %117, ptr noundef @.str.6)
  br label %119

119:                                              ; preds = %115
  br label %120

120:                                              ; preds = %119
  store i8 1, ptr %10, align 1, !tbaa !7
  %121 = load i8, ptr %10, align 1, !tbaa !7, !range !9, !noundef !10
  %122 = trunc i8 %121 to i1
  %123 = zext i1 %122 to i8
  store i8 %123, ptr %10, align 1, !tbaa !7
  br label %124

124:                                              ; preds = %120
  br label %125

125:                                              ; preds = %124
  store ptr null, ptr %9, align 8, !tbaa !3
  br label %126

126:                                              ; preds = %125
  br label %127

127:                                              ; preds = %126
  br label %128

128:                                              ; preds = %127, %108, %105
  br label %129

129:                                              ; preds = %128, %102
  br label %130

130:                                              ; preds = %129, %18
  %131 = load ptr, ptr %9, align 8, !tbaa !3
  call void @llvm.lifetime.end.p0(i64 1, ptr %10) #4
  call void @llvm.lifetime.end.p0(i64 8, ptr %9) #4
  call void @llvm.lifetime.end.p0(i64 8, ptr %8) #4
  call void @llvm.lifetime.end.p0(i64 8, ptr %7) #4
  ret ptr %131
}