; Function Attrs: nounwind uwtable
define internal ptr @H5O__group_create(ptr noundef %0, ptr noundef %1, ptr noundef writeonly captures(none) %2) #0 {
  %4 = load i8, ptr @H5G_init_g, align 1, !tbaa !3, !range !7, !noundef !8
  %5 = trunc nuw i8 %4 to i1
  %6 = load i8, ptr @H5_libterm_g, align 1, !range !7
  %7 = trunc nuw i8 %6 to i1
  %8 = xor i1 %7, true
  %9 = select i1 %5, i1 true, i1 %8
  br i1 %9, label %10, label %.thread, !prof !9

10:                                               ; preds = %3
  %11 = tail call ptr @H5G__create(ptr noundef %0, ptr noundef %1) #3
  %12 = icmp eq ptr %11, null
  br i1 %12, label %13, label %17

13:                                               ; preds = %10
  %14 = load i64, ptr @H5E_SYM_g, align 8, !tbaa !10
  %15 = load i64, ptr @H5E_CANTINIT_g, align 8, !tbaa !10
  %16 = tail call i32 (ptr, ptr, i32, i64, i64, ptr, ...) @H5E_printf_stack(ptr noundef nonnull @.str.2, ptr noundef nonnull @__func__.H5O__group_create, i32 noundef 237, i64 noundef %14, i64 noundef %15, ptr noundef nonnull @.str.7) #3
  br label %.thread

17:                                               ; preds = %10
  %18 = tail call ptr @H5G_oloc(ptr noundef nonnull %11) #3
  store ptr %18, ptr %2, align 8, !tbaa !19
  %19 = icmp eq ptr %18, null
  br i1 %19, label %20, label %24

20:                                               ; preds = %17
  %21 = load i64, ptr @H5E_ARGS_g, align 8, !tbaa !10
  %22 = load i64, ptr @H5E_BADVALUE_g, align 8, !tbaa !10
  %23 = tail call i32 (ptr, ptr, i32, i64, i64, ptr, ...) @H5E_printf_stack(ptr noundef nonnull @.str.2, ptr noundef nonnull @__func__.H5O__group_create, i32 noundef 241, i64 noundef %21, i64 noundef %22, ptr noundef nonnull @.str.8) #3
  br label %32

24:                                               ; preds = %17
  %25 = tail call ptr @H5G_nameof(ptr noundef nonnull %11) #3
  %26 = getelementptr inbounds nuw i8, ptr %2, i64 8
  store ptr %25, ptr %26, align 8, !tbaa !23
  %27 = icmp eq ptr %25, null
  br i1 %27, label %28, label %.thread

28:                                               ; preds = %24
  %29 = load i64, ptr @H5E_ARGS_g, align 8, !tbaa !10
  %30 = load i64, ptr @H5E_BADVALUE_g, align 8, !tbaa !10
  %31 = tail call i32 (ptr, ptr, i32, i64, i64, ptr, ...) @H5E_printf_stack(ptr noundef nonnull @.str.2, ptr noundef nonnull @__func__.H5O__group_create, i32 noundef 243, i64 noundef %29, i64 noundef %30, ptr noundef nonnull @.str.9) #3
  br label %32

32:                                               ; preds = %20, %28
  %33 = tail call i32 @H5G_close(ptr noundef nonnull %11) #3
  %34 = icmp slt i32 %33, 0
  br i1 %34, label %35, label %.thread

35:                                               ; preds = %32
  %36 = load i64, ptr @H5E_SYM_g, align 8, !tbaa !10
  %37 = load i64, ptr @H5E_CLOSEERROR_g, align 8, !tbaa !10
  %38 = tail call i32 (ptr, ptr, i32, i64, i64, ptr, ...) @H5E_printf_stack(ptr noundef nonnull @.str.2, ptr noundef nonnull @__func__.H5O__group_create, i32 noundef 251, i64 noundef %36, i64 noundef %37, ptr noundef nonnull @.str.6) #3
  br label %.thread

.thread:                                          ; preds = %13, %24, %35, %32, %3
  %.0 = phi ptr [ null, %35 ], [ null, %32 ], [ null, %3 ], [ %11, %24 ], [ null, %13 ]
  ret ptr %.0
}